EXPORTS
    _Z10cullPointsiPdiiPi @1
    _Z10dxStepBodyP6dxBodyd @2
    _Z11SwapNormalsPA4_dS0_S0_S0_S0_S0_S0_PdS1_S1_ @3
    _Z11dCollideBTLP6dxGeomS0_iP12dContactGeomi @4
    _Z11dCollideRTLP6dxGeomS0_iP12dContactGeomi @5
    _Z11dCollideSTLP6dxGeomS0_iP12dContactGeomi @6
    _Z11dCollideTTLP6dxGeomS0_iP12dContactGeomi @7
    _Z11dWorldCheckP7dxWorld @8
    _Z12dCollideCCTLP6dxGeomS0_iP12dContactGeomi @9
    _Z13FetchTriangleP9dxTriMeshiPKdS2_PA4_d @10
    _Z14dCollideBoxBoxP6dxGeomS0_iP12dContactGeomi @11
    _Z14dCollideRayBoxP6dxGeomS0_iP12dContactGeomi @12
    _Z14dSolveLCPBasiciPdS_S_S_iS_S_ @13
    _Z14dxQuickStepperP7dxWorldPKP6dxBodyiPKP7dxJointid @14
    _Z15dCollideSpheresPddS_dP12dContactGeom @15
    _Z15dWorldExportDIFP7dxWorldP6_iobufPKc @16
    _Z16coplanar_tri_triPdS_S_S_S_S_S_ @17
    _Z16dCollideBoxPlaneP6dxGeomS0_iP12dContactGeomi @18
    _Z16dCollideRayPlaneP6dxGeomS0_iP12dContactGeomi @19
    _Z16dxProcessIslandsP7dxWorlddPFvS0_PKP6dxBodyiPKP7dxJointidE @20
    _Z17SqrDistanceSegTriPKdS0_S0_S0_S0_PdS1_S1_ @21
    _Z17dCollideRaySphereP6dxGeomS0_iP12dContactGeomi @22
    _Z17dCollideSphereBoxP6dxGeomS0_iP12dContactGeomi @23
    _Z17dCollideTransformP6dxGeomS0_iP12dContactGeomi @24
    _Z17dInternalStepFastP7dxWorldPP6dxBodyPPdS5_P7dxJointNS6_5Info1ENS6_5Info2Ed @25
    _Z19SqrDistancePointTriPKdS0_S0_S0_PdS1_ @26
    _Z19SqrDistanceSegmentsPKdS0_S0_S0_PdS1_ @27
    _Z19_cldClipEdgeToPlaneRA4_dS0_RA4_Kd @28
    _Z19dCollideSpherePlaneP6dxGeomS0_iP12dContactGeomi @29
    _Z19dInternalStepIslandP7dxWorldPKP6dxBodyiPKP7dxJointid @30
    _Z20dCollideCCylinderBoxP6dxGeomS0_iP12dContactGeomi @31
    _Z20dCollideRayCCylinderP6dxGeomS0_iP12dContactGeomi @32
    _Z20dCollideSphereSphereP6dxGeomS0_iP12dContactGeomi @33
    _Z20dLineClosestApproachPKdS0_S0_S0_PdS1_ @34
    _Z21_ProcessLocalContactsv @35
    _Z21dClosestLineBoxPointsPKdS0_S0_S0_S0_PdS1_ @36
    _Z22_OptimizeLocalContactsv @37
    _Z22dCollideCCylinderPlaneP6dxGeomS0_iP12dContactGeomi @38
    _Z22dInternalStepIsland_x1P7dxWorldPKP6dxBodyiPKP7dxJointid @39
    _Z22dInternalStepIsland_x2P7dxWorldPKP6dxBodyiPKP7dxJointid @40
    _Z23dCollideCCylinderSphereP6dxGeomS0_iP12dContactGeomi @41
    _Z23dInternalStepIslandFastP7dxWorldPKP6dxBodyiPKP7dxJointidi @42
    _Z26dCollideCCylinderCCylinderP6dxGeomS0_iP12dContactGeomi @43
    _Z27compute_intervals_isectlinePdS_S_ddddddddS_S_S_S_ @44
    _Z28dInternalHandleAutoDisablingP7dxWorldd @45
    _Z6isect2PdS_S_ddddddS_S_S_S_ @46
    _Z7DllMainPvmS_@12 @47
    _Z7dBoxBoxPKdS0_S0_S0_S0_S0_PdS1_PiiP12dContactGeomi @48
    _Z9dSolveLCPiPdS_S_S_iS_S_Pi @49
    _ZN10dArrayBase19constructLocalArrayEi @50
    _ZN10dArrayBase8_freeAllEi @51
    _ZN10dArrayBase8_setSizeEii @52
    _ZN10dArrayBasedlEPvj @53
    _ZN10dArrayBasenwEj @54
    _ZN10dxUserGeom11computeAABBEv @55
    _ZN10dxUserGeom8AABBTestEP6dxGeomPd @56
    _ZN10dxUserGeomC1Ei @57
    _ZN10dxUserGeomC2Ei @58
    _ZN10dxUserGeomD0Ev @59
    _ZN10dxUserGeomD1Ev @60
    _ZN10dxUserGeomD2Ev @61
    _ZN11dxCCylinder11computeAABBEv @62
    _ZN11dxCCylinderC1EP7dxSpacedd @63
    _ZN11dxCCylinderC2EP7dxSpacedd @64
    _ZN11dxCCylinderD0Ev @65
    _ZN11dxCCylinderD1Ev @66
    _ZN11dxHashSpace10cleanGeomsEv @67
    _ZN11dxHashSpace7collideEPvPFvS0_P6dxGeomS2_E @68
    _ZN11dxHashSpace8collide2EPvP6dxGeomPFvS0_S2_S2_E @69
    _ZN11dxHashSpace9getLevelsEPiS0_ @70
    _ZN11dxHashSpace9setLevelsEii @71
    _ZN11dxHashSpaceC1EP7dxSpace @72
    _ZN11dxHashSpaceC2EP7dxSpace @73
    _ZN11dxHashSpaceD0Ev @74
    _ZN11dxHashSpaceD1Ev @75
    _ZN13dxSimpleSpace10cleanGeomsEv @76
    _ZN13dxSimpleSpace7collideEPvPFvS0_P6dxGeomS2_E @77
    _ZN13dxSimpleSpace8collide2EPvP6dxGeomPFvS0_S2_S2_E @78
    _ZN13dxSimpleSpaceC1EP7dxSpace @79
    _ZN13dxSimpleSpaceC2EP7dxSpace @80
    _ZN13dxSimpleSpaceD0Ev @81
    _ZN13dxSimpleSpaceD1Ev @82
    _ZN13dxTriMeshData5BuildEPKviiS1_iiS1_b @83
    _ZN13dxTriMeshDataC1Ev @84
    _ZN13dxTriMeshDataC2Ev @85
    _ZN13dxTriMeshDataD1Ev @86
    _ZN13dxTriMeshDataD2Ev @87
    _ZN15PrintingContext11printIndentEv @88
    _ZN15PrintingContext12printNonzeroEPKcPKd @89
    _ZN15PrintingContext12printNonzeroEPKcd @90
    _ZN15PrintingContext5printEPKcPKdi @91
    _ZN15PrintingContext5printEPKcS1_ @92
    _ZN15PrintingContext5printEPKcd @93
    _ZN15PrintingContext5printEPKci @94
    _ZN15PrintingContext9printRealEd @95
    _ZN15dxGeomTransform11computeAABBEv @96
    _ZN15dxGeomTransform14computeFinalTxEv @97
    _ZN15dxGeomTransformC1EP7dxSpace @98
    _ZN15dxGeomTransformC2EP7dxSpace @99
    _ZN15dxGeomTransformD0Ev @100
    _ZN15dxGeomTransformD1Ev @101
    _ZN15dxGeomTransformD2Ev @102
    _ZN15dxQuadTreeSpace10cleanGeomsEv @103
    _ZN15dxQuadTreeSpace11computeAABBEv @104
    _ZN15dxQuadTreeSpace3addEP6dxGeom @105
    _ZN15dxQuadTreeSpace5dirtyEP6dxGeom @106
    _ZN15dxQuadTreeSpace6removeEP6dxGeom @107
    _ZN15dxQuadTreeSpace7collideEPvPFvS0_P6dxGeomS2_E @108
    _ZN15dxQuadTreeSpace7getGeomEi @109
    _ZN15dxQuadTreeSpace8collide2EPvP6dxGeomPFvS0_S2_S2_E @110
    _ZN15dxQuadTreeSpaceC1EP7dxSpacePdS2_i @111
    _ZN15dxQuadTreeSpaceC2EP7dxSpacePdS2_i @112
    _ZN15dxQuadTreeSpaceD0Ev @113
    _ZN15dxQuadTreeSpaceD1Ev @114
    _ZN15dxQuadTreeSpaceD2Ev @115
    _ZN17dMatrixComparison10nextMatrixEPdiiiPcz @116
    _ZN17dMatrixComparison3endEv @117
    _ZN17dMatrixComparison4dumpEv @118
    _ZN17dMatrixComparison5resetEv @119
    _ZN17dMatrixComparisonC1Ev @120
    _ZN17dMatrixComparisonC2Ev @121
    _ZN17dMatrixComparisonD1Ev @122
    _ZN17dMatrixComparisonD2Ev @123
    _ZN17dxJointLimitMotor19testRotationalLimitEd @124
    _ZN17dxJointLimitMotor3getEi @125
    _ZN17dxJointLimitMotor3setEid @126
    _ZN17dxJointLimitMotor4initEP7dxWorld @127
    _ZN17dxJointLimitMotor8addLimotEP7dxJointPNS0_5Info2EiPdi @128
    _ZN4dLCP15transfer_i_to_CEi @129
    _ZN4dLCP17pN_plusequals_ANiEPdii @130
    _ZN4dLCP22pN_equals_ANC_times_qCEPdS0_ @131
    _ZN4dLCP22transfer_i_from_C_to_NEi @132
    _ZN4dLCP22transfer_i_from_N_to_CEi @133
    _ZN4dLCP6solve1EPdiii @134
    _ZN4dLCP9unpermuteEv @135
    _ZN4dLCPC1EiiPdS0_S0_S0_S0_S0_S0_S0_S0_S0_S0_PiS1_S1_S1_PS0_ @136
    _ZN4dLCPC2EiiPdS0_S0_S0_S0_S0_S0_S0_S0_S0_S0_PiS1_S1_S1_PS0_ @137
    _ZN5Block12CollideLocalEP6dxGeomPvPFvS2_S1_S1_E @138
    _ZN5Block13GetBlockChildEPKd @139
    _ZN5Block6CreateEPKdS1_PS_iRS2_ @140
    _ZN5Block6InsideEPKd @141
    _ZN5Block7CollideEP6dxGeomS1_PvPFvS2_S1_S1_E @142
    _ZN5Block7CollideEPvPFvS0_P6dxGeomS2_E @143
    _ZN5Block8GetBlockEPKd @144
    _ZN5Block8TraverseEP6dxGeom @145
    _ZN5Block9AddObjectEP6dxGeom @146
    _ZN5Block9DelObjectEP6dxGeom @147
    _ZN5dxBox11computeAABBEv @148
    _ZN5dxBoxC1EP7dxSpaceddd @149
    _ZN5dxBoxC2EP7dxSpaceddd @150
    _ZN5dxBoxD0Ev @151
    _ZN5dxBoxD1Ev @152
    _ZN5dxRay11computeAABBEv @153
    _ZN5dxRayC1EP7dxSpaced @154
    _ZN5dxRayC2EP7dxSpaced @155
    _ZN5dxRayD0Ev @156
    _ZN5dxRayD1Ev @157
    _ZN6dxGeom10bodyRemoveEv @158
    _ZN6dxGeom8AABBTestEPS_Pd @159
    _ZN6dxGeomC1EP7dxSpacei @160
    _ZN6dxGeomC2EP7dxSpacei @161
    _ZN6dxGeomD0Ev @162
    _ZN6dxGeomD1Ev @163
    _ZN6dxGeomD2Ev @164
    _ZN7dMatrix10makeRandomEd @165
    _ZN7dMatrix13maxDifferenceERKS_ @166
    _ZN7dMatrix18clearLowerTriangleEv @167
    _ZN7dMatrix18clearUpperTriangleEv @168
    _ZN7dMatrix5printEPcP6_iobuf @169
    _ZN7dMatrix6selectEiPiiS0_ @170
    _ZN7dMatrix9transposeEv @171
    _ZN7dMatrixC1ERKS_ @172
    _ZN7dMatrixC1Eii @173
    _ZN7dMatrixC1EiiPdii @174
    _ZN7dMatrixC1Ev @175
    _ZN7dMatrixC2ERKS_ @176
    _ZN7dMatrixC2Eii @177
    _ZN7dMatrixC2EiiPdii @178
    _ZN7dMatrixC2Ev @179
    _ZN7dMatrixD1Ev @180
    _ZN7dMatrixD2Ev @181
    _ZN7dMatrixaSERKS_ @182
    _ZN7dMatrixaSEd @183
    _ZN7dMatrixclEii @184
    _ZN7dMatrixmIERKS_ @185
    _ZN7dMatrixmiERKS_ @186
    _ZN7dMatrixmlERKS_ @187
    _ZN7dMatrixngEv @188
    _ZN7dMatrixpLERKS_ @189
    _ZN7dMatrixplERKS_ @190
    _ZN7dxPlane11computeAABBEv @191
    _ZN7dxPlaneC1EP7dxSpacedddd @192
    _ZN7dxPlaneC2EP7dxSpacedddd @193
    _ZN7dxPlaneD0Ev @194
    _ZN7dxPlaneD1Ev @195
    _ZN7dxSpace10getCleanupEv @196
    _ZN7dxSpace10setCleanupEi @197
    _ZN7dxSpace11computeAABBEv @198
    _ZN7dxSpace11getNumGeomsEv @199
    _ZN7dxSpace3addEP6dxGeom @200
    _ZN7dxSpace5dirtyEP6dxGeom @201
    _ZN7dxSpace5queryEP6dxGeom @202
    _ZN7dxSpace6removeEP6dxGeom @203
    _ZN7dxSpace7getGeomEi @204
    _ZN7dxSpaceC1EPS_ @205
    _ZN7dxSpaceC2EPS_ @206
    _ZN7dxSpaceD0Ev @207
    _ZN7dxSpaceD1Ev @208
    _ZN7dxSpaceD2Ev @209
    _ZN8dObStack4nextEi @210
    _ZN8dObStack5allocEi @211
    _ZN8dObStack6rewindEv @212
    _ZN8dObStack7freeAllEv @213
    _ZN8dObStackC1Ev @214
    _ZN8dObStackC2Ev @215
    _ZN8dObStackD1Ev @216
    _ZN8dObStackD2Ev @217
    _ZN8dxSphere11computeAABBEv @218
    _ZN8dxSphereC1EP7dxSpaced @219
    _ZN8dxSphereC2EP7dxSpaced @220
    _ZN8dxSphereD0Ev @221
    _ZN8dxSphereD1Ev @222
    _ZN9dxTriMesh11computeAABBEv @223
    _ZN9dxTriMesh12ClearTCCacheEv @224
    _ZN9dxTriMesh12_LSSColliderE @225 DATA
    _ZN9dxTriMesh12_OBBColliderE @226 DATA
    _ZN9dxTriMesh12_RayColliderE @227 DATA
    _ZN9dxTriMesh15_PlanesColliderE @228 DATA
    _ZN9dxTriMesh15_SphereColliderE @229 DATA
    _ZN9dxTriMesh15defaultBoxCacheE @230 DATA
    _ZN9dxTriMesh17_AABBTreeColliderE @231 DATA
    _ZN9dxTriMesh18defaultSphereCacheE @232 DATA
    _ZN9dxTriMesh21defaultCCylinderCacheE @233 DATA
    _ZN9dxTriMesh5FacesE @234 DATA
    _ZN9dxTriMesh8AABBTestEP6dxGeomPd @235
    _ZN9dxTriMeshC1EP7dxSpaceP13dxTriMeshData @236
    _ZN9dxTriMeshC2EP7dxSpaceP13dxTriMeshData @237
    _ZN9dxTriMeshD0Ev @238
    _ZN9dxTriMeshD1Ev @239
    _ZN9dxTriMeshD2Ev @240
    _ZTV10dxUserGeom @241 DATA
    _ZTV11dxCCylinder @242 DATA
    _ZTV11dxHashSpace @243 DATA
    _ZTV13dxSimpleSpace @244 DATA
    _ZTV15dxGeomTransform @245 DATA
    _ZTV15dxQuadTreeSpace @246 DATA
    _ZTV5dxBox @247 DATA
    _ZTV5dxRay @248 DATA
    _ZTV6dxGeom @249 DATA
    _ZTV7dxPlane @250 DATA
    _ZTV7dxSpace @251 DATA
    _ZTV8dxSphere @252 DATA
    _ZTV9dxTriMesh @253 DATA
    __damotor_vtable @254 DATA
    __dball_vtable @255 DATA
    __dcontact_vtable @256 DATA
    __dfixed_vtable @257 DATA
    __dhinge2_vtable @258 DATA
    __dhinge_vtable @259 DATA
    __dnull_vtable @260 DATA
    __dslider_vtable @261 DATA
    __duniversal_vtable @262 DATA
    dAlloc @263
    dAreConnected @264
    dAreConnectedExcluding @265
    dBodyAddForce @266
    dBodyAddForceAtPos @267
    dBodyAddForceAtRelPos @268
    dBodyAddRelForce @269
    dBodyAddRelForceAtPos @270
    dBodyAddRelForceAtRelPos @271
    dBodyAddRelTorque @272
    dBodyAddTorque @273
    dBodyCreate @274
    dBodyDestroy @275
    dBodyDisable @276
    dBodyEnable @277
    dBodyGetAngularVel @278
    dBodyGetAutoDisableAngularThreshold @279
    dBodyGetAutoDisableFlag @280
    dBodyGetAutoDisableLinearThreshold @281
    dBodyGetAutoDisableSteps @282
    dBodyGetAutoDisableTime @283
    dBodyGetData @284
    dBodyGetFiniteRotationAxis @285
    dBodyGetFiniteRotationMode @286
    dBodyGetForce @287
    dBodyGetGravityMode @288
    dBodyGetJoint @289
    dBodyGetLinearVel @290
    dBodyGetMass @291
    dBodyGetNumJoints @292
    dBodyGetPointVel @293
    dBodyGetPosRelPoint @294
    dBodyGetPosition @295
    dBodyGetQuaternion @296
    dBodyGetRelPointPos @297
    dBodyGetRelPointVel @298
    dBodyGetRotation @299
    dBodyGetTorque @300
    dBodyIsEnabled @301
    dBodySetAngularVel @302
    dBodySetAutoDisableAngularThreshold @303
    dBodySetAutoDisableDefaults @304
    dBodySetAutoDisableFlag @305
    dBodySetAutoDisableLinearThreshold @306
    dBodySetAutoDisableSteps @307
    dBodySetAutoDisableTime @308
    dBodySetData @309
    dBodySetFiniteRotationAxis @310
    dBodySetFiniteRotationMode @311
    dBodySetForce @312
    dBodySetGravityMode @313
    dBodySetLinearVel @314
    dBodySetMass @315
    dBodySetPosition @316
    dBodySetQuaternion @317
    dBodySetRotation @318
    dBodySetTorque @319
    dBodyVectorFromWorld @320
    dBodyVectorToWorld @321
    dBoxTouchesBox @322
    dClearUpperTriangle @323
    dCloseODE @324
    dClosestLineSegmentPoints @325
    dCollide @326
    dCreateBox @327
    dCreateCCylinder @328
    dCreateGeom @329
    dCreateGeomClass @330
    dCreateGeomTransform @331
    dCreatePlane @332
    dCreateRay @333
    dCreateSphere @334
    dCreateTriMesh @335
    dDQfromW @336
    dDebug @337
    dDot @338
    dError @339
    dFactorCholesky @340
    dFactorLDLT @341
    dFree @342
    dGeomBoxGetLengths @343
    dGeomBoxPointDepth @344
    dGeomBoxSetLengths @345
    dGeomCCylinderGetParams @346
    dGeomCCylinderPointDepth @347
    dGeomCCylinderSetParams @348
    dGeomDestroy @349
    dGeomDisable @350
    dGeomEnable @351
    dGeomGetAABB @352
    dGeomGetBody @353
    dGeomGetBodyNext @354
    dGeomGetCategoryBits @355
    dGeomGetClass @356
    dGeomGetClassData @357
    dGeomGetCollideBits @358
    dGeomGetData @359
    dGeomGetPosition @360
    dGeomGetQuaternion @361
    dGeomGetRotation @362
    dGeomGetSpace @363
    dGeomIsEnabled @364
    dGeomIsSpace @365
    dGeomMoved @366
    dGeomPlaneGetParams @367
    dGeomPlanePointDepth @368
    dGeomPlaneSetParams @369
    dGeomRayGet @370
    dGeomRayGetClosestHit @371
    dGeomRayGetLength @372
    dGeomRayGetParams @373
    dGeomRaySet @374
    dGeomRaySetClosestHit @375
    dGeomRaySetLength @376
    dGeomRaySetParams @377
    dGeomSetBody @378
    dGeomSetCategoryBits @379
    dGeomSetCollideBits @380
    dGeomSetData @381
    dGeomSetPosition @382
    dGeomSetQuaternion @383
    dGeomSetRotation @384
    dGeomSphereGetRadius @385
    dGeomSpherePointDepth @386
    dGeomSphereSetRadius @387
    dGeomTransformGetCleanup @388
    dGeomTransformGetGeom @389
    dGeomTransformGetInfo @390
    dGeomTransformSetCleanup @391
    dGeomTransformSetGeom @392
    dGeomTransformSetInfo @393
    dGeomTriMeshClearTCCache @394
    dGeomTriMeshDataBuildDouble @395
    dGeomTriMeshDataBuildDouble1 @396
    dGeomTriMeshDataBuildSimple @397
    dGeomTriMeshDataBuildSimple1 @398
    dGeomTriMeshDataBuildSingle @399
    dGeomTriMeshDataBuildSingle1 @400
    dGeomTriMeshDataCreate @401
    dGeomTriMeshDataDestroy @402
    dGeomTriMeshDataSet @403
    dGeomTriMeshEnableTC @404
    dGeomTriMeshGetArrayCallback @405
    dGeomTriMeshGetCallback @406
    dGeomTriMeshGetPoint @407
    dGeomTriMeshGetRayCallback @408
    dGeomTriMeshGetTriMeshDataID @409
    dGeomTriMeshGetTriangle @410
    dGeomTriMeshIsTCEnabled @411
    dGeomTriMeshSetArrayCallback @412
    dGeomTriMeshSetCallback @413
    dGeomTriMeshSetData @414
    dGeomTriMeshSetRayCallback @415
    dGetAllocHandler @416
    dGetDebugHandler @417
    dGetErrorHandler @418
    dGetFreeHandler @419
    dGetMessageHandler @420
    dGetReallocHandler @421
    dHashSpaceCreate @422
    dHashSpaceGetLevels @423
    dHashSpaceSetLevels @424
    dInfiniteAABB @425
    dInvertPDMatrix @426
    dIsPositiveDefinite @427
    dJointAddAMotorTorques @428
    dJointAddHinge2Torques @429
    dJointAddHingeTorque @430
    dJointAddSliderForce @431
    dJointAddUniversalTorques @432
    dJointAttach @433
    dJointCreateAMotor @434
    dJointCreateBall @435
    dJointCreateContact @436
    dJointCreateFixed @437
    dJointCreateHinge @438
    dJointCreateHinge2 @439
    dJointCreateNull @440
    dJointCreateSlider @441
    dJointCreateUniversal @442
    dJointDestroy @443
    dJointGetAMotorAngle @444
    dJointGetAMotorAngleRate @445
    dJointGetAMotorAxis @446
    dJointGetAMotorAxisRel @447
    dJointGetAMotorMode @448
    dJointGetAMotorNumAxes @449
    dJointGetAMotorParam @450
    dJointGetBallAnchor @451
    dJointGetBallAnchor2 @452
    dJointGetBody @453
    dJointGetData @454
    dJointGetFeedback @455
    dJointGetHinge2Anchor @456
    dJointGetHinge2Anchor2 @457
    dJointGetHinge2Angle1 @458
    dJointGetHinge2Angle1Rate @459
    dJointGetHinge2Angle2Rate @460
    dJointGetHinge2Axis1 @461
    dJointGetHinge2Axis2 @462
    dJointGetHinge2Param @463
    dJointGetHingeAnchor @464
    dJointGetHingeAnchor2 @465
    dJointGetHingeAngle @466
    dJointGetHingeAngleRate @467
    dJointGetHingeAxis @468
    dJointGetHingeParam @469
    dJointGetSliderAxis @470
    dJointGetSliderParam @471
    dJointGetSliderPosition @472
    dJointGetSliderPositionRate @473
    dJointGetType @474
    dJointGetUniversalAnchor @475
    dJointGetUniversalAnchor2 @476
    dJointGetUniversalAngle1 @477
    dJointGetUniversalAngle1Rate @478
    dJointGetUniversalAngle2 @479
    dJointGetUniversalAngle2Rate @480
    dJointGetUniversalAxis1 @481
    dJointGetUniversalAxis2 @482
    dJointGetUniversalParam @483
    dJointGroupCreate @484
    dJointGroupDestroy @485
    dJointGroupEmpty @486
    dJointSetAMotorAngle @487
    dJointSetAMotorAxis @488
    dJointSetAMotorMode @489
    dJointSetAMotorNumAxes @490
    dJointSetAMotorParam @491
    dJointSetBallAnchor @492
    dJointSetData @493
    dJointSetFeedback @494
    dJointSetFixed @495
    dJointSetHinge2Anchor @496
    dJointSetHinge2Axis1 @497
    dJointSetHinge2Axis2 @498
    dJointSetHinge2Param @499
    dJointSetHingeAnchor @500
    dJointSetHingeAxis @501
    dJointSetHingeParam @502
    dJointSetSliderAxis @503
    dJointSetSliderParam @504
    dJointSetUniversalAnchor @505
    dJointSetUniversalAxis1 @506
    dJointSetUniversalAxis2 @507
    dJointSetUniversalParam @508
    dLDLTAddTL @509
    dLDLTRemove @510
    dMakeRandomMatrix @511
    dMakeRandomVector @512
    dMassAdd @513
    dMassAdjust @514
    dMassRotate @515
    dMassSetBox @516
    dMassSetBoxTotal @517
    dMassSetCappedCylinder @518
    dMassSetCappedCylinderTotal @519
    dMassSetCylinder @520
    dMassSetCylinderTotal @521
    dMassSetParameters @522
    dMassSetSphere @523
    dMassSetSphereTotal @524
    dMassSetZero @525
    dMassTranslate @526
    dMaxDifference @527
    dMaxDifferenceLowerTriangle @528
    dMessage @529
    dMultiply0 @530
    dMultiply1 @531
    dMultiply2 @532
    dNormalize3 @533
    dNormalize4 @534
    dPlaneSpace @535
    dPrintMatrix @536
    dQFromAxisAndAngle @537
    dQMultiply0 @538
    dQMultiply1 @539
    dQMultiply2 @540
    dQMultiply3 @541
    dQSetIdentity @542
    dQfromR @543
    dQuadTreeSpaceCreate @544
    dRFrom2Axes @545
    dRFromAxisAndAngle @546
    dRFromEulerAngles @547
    dRFromZAxis @548
    dRSetIdentity @549
    dRand @550
    dRandGetSeed @551
    dRandInt @552
    dRandReal @553
    dRandSetSeed @554
    dRealloc @555
    dRemoveRowCol @556
    dRfromQ @557
    dSetAllocHandler @558
    dSetDebugHandler @559
    dSetErrorHandler @560
    dSetFreeHandler @561
    dSetMessageHandler @562
    dSetReallocHandler @563
    dSetValue @564
    dSetZero @565
    dSimpleSpaceCreate @566
    dSolveCholesky @567
    dSolveL1 @568
    dSolveL1T @569
    dSolveLDLT @570
    dSpaceAdd @571
    dSpaceClean @572
    dSpaceCollide @573
    dSpaceCollide2 @574
    dSpaceDestroy @575
    dSpaceGetCleanup @576
    dSpaceGetGeom @577
    dSpaceGetNumGeoms @578
    dSpaceQuery @579
    dSpaceRemove @580
    dSpaceSetCleanup @581
    dStopwatchReset @582
    dStopwatchStart @583
    dStopwatchStop @584
    dStopwatchTime @585
    dTestDataStructures @586
    dTestMatrixComparison @587
    dTestRand @588
    dTestSolveLCP @589
    dTimerEnd @590
    dTimerNow @591
    dTimerReport @592
    dTimerResolution @593
    dTimerStart @594
    dTimerTicksPerSecond @595
    dVectorScale @596
    dWorldCreate @597
    dWorldDestroy @598
    dWorldGetAutoDisableAngularThreshold @599
    dWorldGetAutoDisableFlag @600
    dWorldGetAutoDisableLinearThreshold @601
    dWorldGetAutoDisableSteps @602
    dWorldGetAutoDisableTime @603
    dWorldGetAutoEnableDepthSF1 @604
    dWorldGetCFM @605
    dWorldGetContactMaxCorrectingVel @606
    dWorldGetContactSurfaceLayer @607
    dWorldGetERP @608
    dWorldGetGravity @609
    dWorldGetQuickStepNumIterations @610
    dWorldGetQuickStepW @611
    dWorldImpulseToForce @612
    dWorldQuickStep @613
    dWorldSetAutoDisableAngularThreshold @614
    dWorldSetAutoDisableFlag @615
    dWorldSetAutoDisableLinearThreshold @616
    dWorldSetAutoDisableSteps @617
    dWorldSetAutoDisableTime @618
    dWorldSetAutoEnableDepthSF1 @619
    dWorldSetCFM @620
    dWorldSetContactMaxCorrectingVel @621
    dWorldSetContactSurfaceLayer @622
    dWorldSetERP @623
    dWorldSetGravity @624
    dWorldSetQuickStepNumIterations @625
    dWorldSetQuickStepW @626
    dWorldStep @627
    dWorldStepFast1 @628
    gCylinder @629 DATA
    gTriMesh @630 DATA
